ccollections
defaultdict
p0
(c__builtin__
list
p1
tp2
Rp3
S'y43'
p4
(lp5
S'R3_Junction5'
p6
aS'1'
p7
aI1
aS'x43'
p8
aS'x44'
p9
asS'y9'
p10
(lp11
S'R3_Junction14'
p12
aS'1'
p13
aI1
aS'x5'
p14
aS'x10'
p15
asS'y8'
p16
(lp17
S'R3_Junction12'
p18
aS'3'
p19
aI1
aS'x9'
p20
ag14
asS'y1'
p21
(lp22
S'R3_Junction11'
p23
aS'2'
p24
aI2
aS'x1'
p25
aS'x2'
p26
asS'y0'
p27
(lp28
S'R3_Junction10'
p29
aS'3'
p30
aI2
aS'x0'
p31
ag25
asS'y3'
p32
(lp33
S'R3_Junction12'
p34
aS'2'
p35
aI2
aS'x4'
p36
ag14
asS'y2'
p37
(lp38
S'R3_Junction11'
p39
aS'1'
p40
aI2
aS'x3'
p41
ag36
asS'y5'
p42
(lp43
S'R3_Junction8'
p44
aS'1'
p45
aI2
aS'x6'
p46
aS'x7'
p47
asS'y4'
p48
(lp49
S'R3_Junction14'
p50
aS'1'
p51
aI2
ag14
ag46
asS'y7'
p52
(lp53
S'R3_Junction6'
p54
aS'1'
p55
aI2
aS'x8'
p56
aI0
asS'y6'
p57
(lp58
S'R3_Junction7'
p59
aS'3'
p60
aI1
ag47
ag56
asS'y48'
p61
(lp62
S'R3_Junction11'
p63
aS'2'
p64
aI2
aS'x50'
p65
aS'x51'
p66
asS'y49'
p67
(lp68
S'R3_Junction10'
p69
aS'3'
p70
aI2
ag66
aS'x52'
p71
asS'y46'
p72
(lp73
S'R3_Junction12'
p74
aS'1'
p75
aI1
aS'x27'
p76
aS'x47'
p77
asS'y47'
p78
(lp79
S'R3_Junction10'
p80
aS'2'
p81
aI1
aS'x48'
p82
ag71
asS'y44'
p83
(lp84
S'R3_Junction5'
p85
aS'2'
p86
aI1
aS'x45'
p87
aS'x46'
p88
asS'y45'
p89
(lp90
S'R3_Junction14'
p91
aS'2'
p92
aI2
ag88
ag76
asS'y42'
p93
(lp94
S'R3_Junction13'
p95
aS'1'
p96
aI1
aS'x42'
p97
ag8
asS'y35'
p98
(lp99
S'R3_Junction3'
p100
aS'1'
p101
aI1
aS'x35'
p102
aS'x36'
p103
asS'y40'
p104
(lp105
S'R3_Junction3'
p106
aS'1'
p107
aI1
aS'x40'
p108
aS'x41'
p109
asS'y41'
p110
(lp111
S'R3_Junction4'
p112
aS'1'
p113
aI1
ag109
ag97
asS'y28'
p114
(lp115
S'R3_Junction14'
p116
aS'2'
p117
aI2
ag88
ag76
asS'y29'
p118
(lp119
S'R3_Junction12'
p120
aS'1'
p121
aI2
ag76
aS'x28'
p122
asS'y20'
p123
(lp124
S'R3_Junction1'
p125
aS'2'
p126
aI2
aS'x17'
p127
aI0
asS'y21'
p128
(lp129
S'R3_Junction1'
p130
aS'2'
p131
aI2
aS'x19'
p132
aS'x20'
p133
asS'y22'
p134
(lp135
S'R3_Junction6'
p136
aS'3'
p137
aI1
ag133
aS'x21'
p138
asS'y23'
p139
(lp140
S'R3_Junction7'
p141
aS'1'
p142
aI1
ag138
aS'x22'
p143
asS'y24'
p144
(lp145
S'R3_Junction1'
p146
aS'2'
p147
aI2
ag132
ag133
asS'y25'
p148
(lp149
S'R3_Junction6'
p150
aS'3'
p151
aI2
ag133
aS'x23'
p152
asS'y26'
p153
(lp154
S'R3_Junction13'
p155
aS'2'
p156
aI1
aS'x24'
p157
aS'x25'
p158
asS'y27'
p159
(lp160
S'R3_Junction8'
p161
aS'3'
p162
aI1
ag158
aS'x26'
p163
asS'y34'
p164
(lp165
S'R3_Junction4'
p166
aS'1'
p167
aI1
aS'x34'
p168
ag102
asS'y33'
p169
(lp170
S'R3_Junction13'
p171
aS'1'
p172
aI1
aS'x33'
p173
ag168
asS'y32'
p174
(lp175
S'R3_Junction5'
p176
aS'1'
p177
aI1
aS'x32'
p178
ag173
asS'y31'
p179
(lp180
S'R3_Junction14'
p181
aS'3'
p182
aI2
aS'x30'
p183
aS'x31'
p184
asS'y30'
p185
(lp186
S'R3_Junction11'
p187
aS'1'
p188
aI2
ag122
aS'x29'
p189
asS'y51'
p190
(lp191
S'R3_Junction7'
p192
aS'1'
p193
aI2
ag138
aS'x54'
p194
asS'y37'
p195
(lp196
S'R3_Junction1'
p197
aS'1'
p198
aI1
aS'x37'
p199
aI0
asS'y53'
p200
(lp201
S'R3_Junction9'
p202
aS''
p203
aI1
aS'x56'
p204
aS'x57'
p205
asS'y52'
p206
(lp207
S'R3_Junction8'
p208
aS'2'
p209
aI1
ag194
aS'x55'
p210
asS'y55'
p211
(lp212
S'R3_Junction2'
p213
aS'2'
p214
aI1
aS'x59'
p215
aS'x60'
p216
asS'y54'
p217
(lp218
S'R3_Junction10'
p219
aS'1'
p220
aI1
ag205
aS'x58'
p221
asS'y56'
p222
(lp223
S'R3_Junction6'
p224
aS'1'
p225
aI1
ag56
ag152
asS'y36'
p226
(lp227
S'R3_Junction2'
p228
aS'1'
p229
aI1
ag103
ag199
asS'y39'
p230
(lp231
S'R3_Junction2'
p232
aS'1'
p233
aI1
aS'x39'
p234
ag108
asS'y38'
p235
(lp236
S'R3_Junction1'
p237
aS'1'
p238
aI1
aS'x38'
p239
ag234
asS'y19'
p240
(lp241
S'R3_Junction6'
p242
aS'3'
p243
aI2
aS'x18'
p244
ag127
asS'y18'
p245
(lp246
S'R3_Junction1'
p247
aS'2'
p248
aI2
ag127
aI0
asS'y50'
p249
(lp250
S'R3_Junction6'
p251
aS'1'
p252
aI2
aS'x53'
p253
ag138
asS'y15'
p254
(lp255
S'R3_Junction3'
p256
aS'2'
p257
aI2
aS'x15'
p258
aI0
asS'y14'
p259
(lp260
S'R3_Junction7'
p261
aS'3'
p262
aI1
ag47
ag258
asS'y17'
p263
(lp264
S'R3_Junction6'
p265
aS'2'
p266
aI1
ag56
ag127
asS'y16'
p267
(lp268
S'R3_Junction7'
p269
aS'2'
p270
aI1
aS'x16'
p271
ag56
asS'y11'
p272
(lp273
S'R3_Junction8'
p274
aS'1'
p275
aI2
ag46
ag47
asS'y10'
p276
(lp277
S'R3_Junction14'
p278
aS'3'
p279
aI1
aS'x11'
p280
ag46
asS'y13'
p281
(lp282
S'R3_Junction8'
p283
aS'3'
p284
aI1
aS'x14'
p285
ag47
asS'y12'
p286
(lp287
S'R3_Junction4'
p288
aS'2'
p289
aI1
aS'x12'
p290
aS'x13'
p291
as.