ccollections
defaultdict
p0
(tRp1
S'x18'
p2
(lp3
S'OrigionS7'
p4
aS'100323308#2'
p5
aS'100323308#3'
p6
asS'x19'
p7
(lp8
S'-100323308#6'
p9
asS'x10'
p10
(lp11
S'135626776#3'
p12
aS'135626776#4'
p13
aS'135626776#5'
p14
asS'x11'
p15
(lp16
S'OrigionS4'
p17
aS'135626776#1'
p18
asS'x12'
p19
(lp20
S'91568767#9'
p21
aS'70438941#1'
p22
aS'70438941#2'
p23
aS'70438941#3'
p24
asS'x13'
p25
(lp26
S'70438941#4'
p27
asS'x14'
p28
(lp29
S'OrigionS5'
p30
asS'x15'
p31
(lp32
S'253924915#0'
p33
aS'253924915#1'
p34
asS'x16'
p35
(lp36
S'OrigionS6'
p37
aS'-230239448#0'
p38
aS'-230239447'
p39
aS'-230491007'
p40
asS'x17'
p41
(lp42
S'100323308#5'
p43
asS'x60'
p44
(lp45
S'492979886'
p46
aS'135626762#2'
p47
asS'x29'
p48
(lp49
S'DestinationW3'
p50
asS'x28'
p51
(lp52
S'492979884#4'
p53
asS'x25'
p54
(lp55
S'253924914#5'
p56
aS'253924914#6'
p57
aS'253924914#7'
p58
asS'x24'
p59
(lp60
S'253924914#3'
p61
aS'253924914#4'
p62
asS'x27'
p63
(lp64
S'492979884#3'
p65
asS'x26'
p66
(lp67
S'492979884#0'
p68
aS'492979884#1'
p69
asS'x21'
p70
(lp71
S'69550029#1'
p72
aS'492979883'
p73
asS'x20'
p74
(lp75
S'-100323308#5'
p76
asS'x23'
p77
(lp78
S'542054843#1'
p79
aS'542054843#2'
p80
asS'x22'
p81
(lp82
S'230491007'
p83
aS'230239447'
p84
aS'230239448#0'
p85
asS's19'
p86
S'R3_Junction14_2'
p87
sS's18'
p88
S'R3_Junction13_2'
p89
sS's13'
p90
S'R3_Junction7_2'
p91
sS's12'
p92
S'R3_Junction3_2'
p93
sS's11'
p94
S'R3_Junction8_3'
p95
sS's10'
p96
S'R3_Junction4_2'
p97
sS's17'
p98
S'R3_Junction7_1'
p99
sS's16'
p100
S'R3_Junction6_3'
p101
sS's15'
p102
S'R3_Junction1_2'
p103
sS's14'
p104
S'R3_Junction6_2'
p105
sS'x32'
p106
(lp107
S'OrigionW8'
p108
asS'x33'
p109
(lp110
S'38866846#1'
p111
asS'x30'
p112
(lp113
S'162259815#0'
p114
aS'162259815#1'
p115
aS'162259815#2'
p116
aS'162259815#3'
p117
aS'162259815#4'
p118
aS'162259815#5'
p119
asS'x31'
p120
(lp121
S'162259815#7'
p122
asS'x36'
p123
(lp124
S'492981119'
p125
asS'x37'
p126
(lp127
S'492979896#0'
p128
asS'x34'
p129
(lp130
S'38866846#2'
p131
asS'x35'
p132
(lp133
S'38866846#3'
p134
aS'135626787'
p135
aS'135626763#0'
p136
aS'135626763#1'
p137
asS'x38'
p138
(lp139
S'-492979896#2'
p140
asS'x39'
p141
(lp142
S'-492979896#0'
p143
asS'x47'
p144
(lp145
S'DestinationS2'
p146
asS'x46'
p147
(lp148
S'95775639#3'
p149
aS'95775639#4'
p150
aS'95775639#5'
p151
aS'492979884#1'
p152
asS'x45'
p153
(lp154
S'95775639#1'
p155
aS'95775639#2'
p156
asS'x44'
p157
(lp158
S'DestinationW8'
p159
asS'x43'
p160
(lp161
S'-38866846#1'
p162
asS'x42'
p163
(lp164
S'-38866846#2'
p165
asS'x41'
p166
(lp167
S'-135626763#1'
p168
aS'-135626763#0'
p169
aS'-135626787'
p170
aS'-38866846#3'
p171
asS'x40'
p172
(lp173
S'-492981119'
p174
asS'x49'
p175
(lp176
S'135626767#7'
p177
aS'240833369#0'
p178
asS'x48'
p179
(lp180
S'OrigionW2'
p181
asS's31'
p182
S'R3_Junction10_1'
p183
sS's30'
p184
S'R3_Junction9_'
p185
sS's32'
p186
S'R3_Junction2_2'
p187
sS'x8'
p188
(lp189
S'135626762#1'
p190
aS'135626762#2'
p191
asS'x9'
p192
(lp193
S'OrigionS2'
p194
asS'x2'
p195
(lp196
S'-135626767#3'
p197
asS'x3'
p198
(lp199
S'OrigionW3'
p200
asS'x0'
p201
(lp202
S'OrigionW4'
p203
aS'-135626767#7'
p204
asS'x1'
p205
(lp206
S'-135626767#6'
p207
aS'-135626767#5'
p208
asS'x6'
p209
(lp210
S'91568767#8'
p211
asS'x7'
p212
(lp213
S'91568767#9'
p214
aS'91568767#10'
p215
aS'135626766'
p216
aS'135626762#0'
p217
asS'x4'
p218
(lp219
S'91568767#5'
p220
asS'x5'
p221
(lp222
S'91568767#6'
p223
asS'x54'
p224
(lp225
S'492981120'
p226
aS'135626779'
p227
aS'135626780#0'
p228
aS'135626780#1'
p229
aS'135626780#2'
p230
asS'x55'
p231
(lp232
S'DestinationS5'
p233
asS'x56'
p234
(lp235
S'162259815#0'
p236
aS'162259815#1'
p237
aS'162259815#2'
p238
aS'69059186#0'
p239
aS'69059186#1'
p240
asS'x57'
p241
(lp242
S'69059186#2'
p243
asS'x50'
p244
(lp245
S'OrigionS1'
p246
aS'135626767#3'
p247
asS'x51'
p248
(lp249
S'135626767#5'
p250
aS'135626767#6'
p251
asS'x52'
p252
(lp253
S'135626767#7'
p254
asS'x53'
p255
(lp256
S'-69555386#0'
p257
asS'x58'
p258
(lp259
S'DestinationW2'
p260
asS'x59'
p261
(lp262
S'68313224#2'
p263
asS's9'
p264
S'R3_Junction14_3'
p265
sS's8'
p266
S'R3_Junction12_3'
p267
sS's3'
p268
S'R3_Junction12_2'
p269
sS's2'
p270
S'R3_Junction11_1'
p271
sS's1'
p272
S'R3_Junction11_2'
p273
sS's0'
p274
S'R3_Junction10_3'
p275
sS's7'
p276
S'R3_Junction6_1'
p277
sS's6'
p278
S'R3_Junction7_3'
p279
sS's5'
p280
S'R3_Junction8_1'
p281
sS's4'
p282
S'R3_Junction14_1'
p283
sS's22'
p284
S'R3_Junction13_1'
p285
sS's23'
p286
S'R3_Junction4_1'
p287
sS's20'
p288
S'R3_Junction12_1'
p289
sS's21'
p290
S'R3_Junction5_1'
p291
sS's26'
p292
S'R3_Junction1_1'
p293
sS's27'
p294
S'R3_Junction5_2'
p295
sS's24'
p296
S'R3_Junction3_1'
p297
sS's25'
p298
S'R3_Junction2_1'
p299
sS's28'
p300
S'R3_Junction10_2'
p301
sS's29'
p302
S'R3_Junction8_2'
p303
s.